target datalayout = "e-m:e-p270:32:32-p271:32:32-p272:64:64-i64:64-i128:128-f80:128-n8:16:32:64-S128"
target triple = "x86_64-pc-linux-gnu"

%"class.std::__cxx11::basic_string" = type { %"struct.std::__cxx11::basic_string<char>::_Alloc_hider", i64, %union.anon }
%"struct.std::__cxx11::basic_string<char>::_Alloc_hider" = type { ptr }
%union.anon = type { i64, [8 x i8] }
%class.cmListFileContext = type { %"class.std::__cxx11::basic_string", %"class.std::__cxx11::basic_string", i64, %"class.std::optional" }
%"class.std::optional" = type { %"struct.std::_Optional_base" }
%"struct.std::_Optional_base" = type { %"struct.std::_Optional_payload" }
%"struct.std::_Optional_payload" = type { %"struct.std::_Optional_payload.base", [7 x i8] }
%"struct.std::_Optional_payload.base" = type { %"struct.std::_Optional_payload_base.base" }
%"struct.std::_Optional_payload_base.base" = type <{ %"union.std::_Optional_payload_base<std::__cxx11::basic_string<char>>::_Storage", i8 }>
%"union.std::_Optional_payload_base<std::__cxx11::basic_string<char>>::_Storage" = type { %"class.std::__cxx11::basic_string" }

@.str.36 = private unnamed_addr constant [2 x i8] c":\00", align 1
@.str.37 = private unnamed_addr constant [3 x i8] c" (\00", align 1
@.str.38 = private unnamed_addr constant [2 x i8] c")\00", align 1
@.str.39 = private unnamed_addr constant [10 x i8] c":DEFERRED\00", align 1

; Function Attrs: mustprogress uwtable
define dso_local noundef nonnull align 8 dereferenceable(8) ptr @_ZlsRSoRK17cmListFileContext(ptr noundef nonnull align 8 dereferenceable(8) %0, ptr noundef nonnull align 8 dereferenceable(112) %1) #4 {
  %3 = alloca ptr, align 8
  %4 = alloca ptr, align 8
  store ptr %0, ptr %3, align 8
  store ptr %1, ptr %4, align 8
  %5 = load ptr, ptr %3, align 8
  %6 = load ptr, ptr %4, align 8
  %7 = getelementptr inbounds %class.cmListFileContext, ptr %6, i32 0, i32 1
  %8 = call noundef nonnull align 8 dereferenceable(8) ptr @_ZStlsIcSt11char_traitsIcESaIcEERSt13basic_ostreamIT_T0_ES7_RKNSt7__cxx1112basic_stringIS4_S5_T1_EE(ptr noundef nonnull align 8 dereferenceable(8) %5, ptr noundef nonnull align 8 dereferenceable(32) %7)
  %9 = load ptr, ptr %4, align 8
  %10 = getelementptr inbounds %class.cmListFileContext, ptr %9, i32 0, i32 2
  %11 = load i64, ptr %10, align 8
  %12 = icmp sgt i64 %11, 0
  br i1 %12, label %13, label %31

13:                                               ; preds = %2
  %14 = load ptr, ptr %3, align 8
  %15 = call noundef nonnull align 8 dereferenceable(8) ptr @_ZStlsISt11char_traitsIcEERSt13basic_ostreamIcT_ES5_PKc(ptr noundef nonnull align 8 dereferenceable(8) %14, ptr noundef @.str.36)
  %16 = load ptr, ptr %4, align 8
  %17 = getelementptr inbounds %class.cmListFileContext, ptr %16, i32 0, i32 2
  %18 = load i64, ptr %17, align 8
  %19 = call noundef nonnull align 8 dereferenceable(8) ptr @_ZNSolsEl(ptr noundef nonnull align 8 dereferenceable(8) %15, i64 noundef %18)
  %20 = load ptr, ptr %4, align 8
  %21 = getelementptr inbounds %class.cmListFileContext, ptr %20, i32 0, i32 0
  %22 = call noundef zeroext i1 @_ZNKSt7__cxx1112basic_stringIcSt11char_traitsIcESaIcEE5emptyEv(ptr noundef nonnull align 8 dereferenceable(32) %21) #3
  br i1 %22, label %30, label %23

23:                                               ; preds = %13
  %24 = load ptr, ptr %3, align 8
  %25 = call noundef nonnull align 8 dereferenceable(8) ptr @_ZStlsISt11char_traitsIcEERSt13basic_ostreamIcT_ES5_PKc(ptr noundef nonnull align 8 dereferenceable(8) %24, ptr noundef @.str.37)
  %26 = load ptr, ptr %4, align 8
  %27 = getelementptr inbounds %class.cmListFileContext, ptr %26, i32 0, i32 0
  %28 = call noundef nonnull align 8 dereferenceable(8) ptr @_ZStlsIcSt11char_traitsIcESaIcEERSt13basic_ostreamIT_T0_ES7_RKNSt7__cxx1112basic_stringIS4_S5_T1_EE(ptr noundef nonnull align 8 dereferenceable(8) %25, ptr noundef nonnull align 8 dereferenceable(32) %27)
  %29 = call noundef nonnull align 8 dereferenceable(8) ptr @_ZStlsISt11char_traitsIcEERSt13basic_ostreamIcT_ES5_PKc(ptr noundef nonnull align 8 dereferenceable(8) %28, ptr noundef @.str.38)
  br label %30

30:                                               ; preds = %23, %13
  br label %40

31:                                               ; preds = %2
  %32 = load ptr, ptr %4, align 8
  %33 = getelementptr inbounds %class.cmListFileContext, ptr %32, i32 0, i32 2
  %34 = load i64, ptr %33, align 8
  %35 = icmp eq i64 %34, -1
  br i1 %35, label %36, label %39

36:                                               ; preds = %31
  %37 = load ptr, ptr %3, align 8
  %38 = call noundef nonnull align 8 dereferenceable(8) ptr @_ZStlsISt11char_traitsIcEERSt13basic_ostreamIcT_ES5_PKc(ptr noundef nonnull align 8 dereferenceable(8) %37, ptr noundef @.str.39)
  br label %39

39:                                               ; preds = %36, %31
  br label %40

40:                                               ; preds = %39, %30
  %41 = load ptr, ptr %3, align 8
  ret ptr %41
}